target datalayout = "e-m:e-p270:32:32-p271:32:32-p272:64:64-i64:64-i128:128-f80:128-n8:16:32:64-S128"
target triple = "x86_64-pc-linux-gnu"

; Function Attrs: mustprogress uwtable
define internal noundef i32 @_ZL17buffer_fromstringP9lua_State(ptr noundef %0) #0 {
  %2 = alloca ptr, align 8
  %3 = alloca i64, align 8
  %4 = alloca ptr, align 8
  %5 = alloca ptr, align 8
  store ptr %0, ptr %2, align 8
  store i64 0, ptr %3, align 8
  %6 = load ptr, ptr %2, align 8
  %7 = call noundef ptr @_Z17luaL_checklstringP9lua_StateiPm(ptr noundef %6, i32 noundef 1, ptr noundef %3)
  store ptr %7, ptr %4, align 8
  %8 = load ptr, ptr %2, align 8
  %9 = load i64, ptr %3, align 8
  %10 = call noundef ptr @_Z13lua_newbufferP9lua_Statem(ptr noundef %8, i64 noundef %9)
  store ptr %10, ptr %5, align 8
  %11 = load ptr, ptr %5, align 8
  %12 = load ptr, ptr %4, align 8
  %13 = load i64, ptr %3, align 8
  call void @llvm.memcpy.p0.p0.i64(ptr align 1 %11, ptr align 1 %12, i64 %13, i1 false)
  ret i32 1
}