; Function Attrs: mustprogress uwtable
define internal noundef i32 @_ZL17buffer_fromstringP9lua_State(ptr noundef %0) #0 {
  %2 = alloca i64, align 8
  store i64 0, ptr %2, align 8
  %3 = call noundef ptr @_Z17luaL_checklstringP9lua_StateiPm(ptr noundef %0, i32 noundef 1, ptr noundef nonnull %2)
  %4 = load i64, ptr %2, align 8
  %5 = call noundef ptr @_Z13lua_newbufferP9lua_Statem(ptr noundef %0, i64 noundef %4)
  %6 = load i64, ptr %2, align 8
  call void @llvm.memcpy.p0.p0.i64(ptr align 1 %5, ptr align 1 %3, i64 %6, i1 false)
  ret i32 1
}